; Function Attrs: nounwind uwtable
define zeroext range(i8 0, 2) i8 @l_Option_beqOption____x40_Init_Data_Option_Basic___hyg_160____at_Lean_Elab_InfoTree_hoverableInfoAt_x3f___spec__17(ptr noundef %0, ptr noundef %1) local_unnamed_addr #0 {
  %3 = ptrtoint ptr %0 to i64
  %4 = and i64 %3, 1
  %.not.i = icmp eq i64 %4, 0
  br i1 %.not.i, label %8, label %5

5:                                                ; preds = %2
  %6 = lshr i64 %3, 1
  %7 = trunc i64 %6 to i32
  br label %lean_obj_tag.exit

8:                                                ; preds = %2
  %9 = getelementptr i8, ptr %0, i64 4
  %.val.i = load i32, ptr %9, align 4
  %10 = lshr i32 %.val.i, 24
  br label %lean_obj_tag.exit

lean_obj_tag.exit:                                ; preds = %5, %8
  %.0.i30 = phi i32 [ %7, %5 ], [ %10, %8 ]
  %11 = icmp eq i32 %.0.i30, 0
  %12 = ptrtoint ptr %1 to i64
  %13 = and i64 %12, 1
  %.not.i31 = icmp eq i64 %13, 0
  br i1 %11, label %14, label %22

14:                                               ; preds = %lean_obj_tag.exit
  br i1 %.not.i31, label %18, label %15

15:                                               ; preds = %14
  %16 = lshr i64 %12, 1
  %17 = trunc i64 %16 to i32
  br label %lean_obj_tag.exit34

18:                                               ; preds = %14
  %19 = getelementptr i8, ptr %1, i64 4
  %.val.i33 = load i32, ptr %19, align 4
  %20 = lshr i32 %.val.i33, 24
  br label %lean_obj_tag.exit34

lean_obj_tag.exit34:                              ; preds = %15, %18
  %.0.i32 = phi i32 [ %17, %15 ], [ %20, %18 ]
  %21 = icmp eq i32 %.0.i32, 0
  br label %lean_nat_eq.exit29

22:                                               ; preds = %lean_obj_tag.exit
  br i1 %.not.i31, label %26, label %23

23:                                               ; preds = %22
  %24 = lshr i64 %12, 1
  %25 = trunc i64 %24 to i32
  br label %lean_obj_tag.exit38

26:                                               ; preds = %22
  %27 = getelementptr i8, ptr %1, i64 4
  %.val.i37 = load i32, ptr %27, align 4
  %28 = lshr i32 %.val.i37, 24
  br label %lean_obj_tag.exit38

lean_obj_tag.exit38:                              ; preds = %23, %26
  %.0.i36 = phi i32 [ %25, %23 ], [ %28, %26 ]
  %29 = icmp eq i32 %.0.i36, 0
  br i1 %29, label %lean_nat_eq.exit29, label %30

30:                                               ; preds = %lean_obj_tag.exit38
  %31 = getelementptr inbounds nuw i8, ptr %0, i64 8
  %32 = load ptr, ptr %31, align 8, !tbaa !9
  %33 = getelementptr inbounds nuw i8, ptr %1, i64 8
  %34 = load ptr, ptr %33, align 8, !tbaa !9
  %35 = getelementptr inbounds nuw i8, ptr %32, i64 8
  %36 = load ptr, ptr %35, align 8, !tbaa !9
  %37 = getelementptr inbounds nuw i8, ptr %32, i64 16
  %38 = load ptr, ptr %37, align 8, !tbaa !9
  %39 = getelementptr inbounds nuw i8, ptr %34, i64 8
  %40 = load ptr, ptr %39, align 8, !tbaa !9
  %41 = getelementptr inbounds nuw i8, ptr %34, i64 16
  %42 = load ptr, ptr %41, align 8, !tbaa !9
  %43 = ptrtoint ptr %36 to i64
  %44 = and i64 %43, 1
  %45 = icmp ne i64 %44, 0
  %46 = ptrtoint ptr %40 to i64
  %47 = and i64 %46, 1
  %48 = icmp ne i64 %47, 0
  %or.cond = select i1 %45, i1 %48, i1 false
  br i1 %or.cond, label %49, label %lean_nat_eq.exit, !prof !18

49:                                               ; preds = %30
  %50 = icmp eq ptr %36, %40
  br i1 %50, label %52, label %lean_nat_eq.exit29

lean_nat_eq.exit:                                 ; preds = %30
  %51 = tail call zeroext i1 @lean_nat_big_eq(ptr noundef %36, ptr noundef %40) #7
  br i1 %51, label %52, label %lean_nat_eq.exit29

52:                                               ; preds = %49, %lean_nat_eq.exit
  %53 = getelementptr inbounds nuw i8, ptr %38, i64 8
  %54 = load ptr, ptr %53, align 8, !tbaa !9
  %55 = getelementptr inbounds nuw i8, ptr %38, i64 16
  %56 = load ptr, ptr %55, align 8, !tbaa !9
  %57 = getelementptr inbounds nuw i8, ptr %42, i64 8
  %58 = load ptr, ptr %57, align 8, !tbaa !9
  %59 = getelementptr inbounds nuw i8, ptr %42, i64 16
  %60 = load ptr, ptr %59, align 8, !tbaa !9
  %61 = ptrtoint ptr %54 to i64
  %62 = ptrtoint ptr %58 to i64
  %63 = and i64 %61, 1
  %64 = and i64 %63, %62
  %or.cond.not.i.i = icmp eq i64 %64, 0
  br i1 %or.cond.not.i.i, label %lean_int_dec_eq.exit, label %65, !prof !17

65:                                               ; preds = %52
  %66 = icmp eq ptr %54, %58
  br i1 %66, label %68, label %lean_nat_eq.exit29

lean_int_dec_eq.exit:                             ; preds = %52
  %67 = tail call zeroext i1 @lean_int_big_eq(ptr noundef %54, ptr noundef %58) #7
  br i1 %67, label %68, label %lean_nat_eq.exit29

68:                                               ; preds = %65, %lean_int_dec_eq.exit
  %69 = ptrtoint ptr %56 to i64
  %70 = and i64 %69, 1
  %71 = icmp ne i64 %70, 0
  %72 = ptrtoint ptr %60 to i64
  %73 = and i64 %72, 1
  %74 = icmp ne i64 %73, 0
  %or.cond43 = select i1 %71, i1 %74, i1 false
  br i1 %or.cond43, label %75, label %.critedge.i27, !prof !18

75:                                               ; preds = %68
  %76 = icmp eq ptr %56, %60
  br label %lean_nat_eq.exit29

.critedge.i27:                                    ; preds = %68
  %77 = tail call zeroext i1 @lean_nat_big_eq(ptr noundef %56, ptr noundef %60) #7
  br label %lean_nat_eq.exit29

lean_nat_eq.exit29:                               ; preds = %65, %49, %.critedge.i27, %75, %lean_nat_eq.exit, %lean_int_dec_eq.exit, %lean_obj_tag.exit38, %lean_obj_tag.exit34
  %.0.shrunk = phi i1 [ %21, %lean_obj_tag.exit34 ], [ false, %lean_obj_tag.exit38 ], [ false, %lean_nat_eq.exit ], [ false, %lean_int_dec_eq.exit ], [ %76, %75 ], [ %77, %.critedge.i27 ], [ false, %49 ], [ false, %65 ]
  %.0 = zext i1 %.0.shrunk to i8
  ret i8 %.0
}